target datalayout = "e-m:e-p270:32:32-p271:32:32-p272:64:64-i64:64-i128:128-f80:128-n8:16:32:64-S128"
target triple = "x86_64-pc-linux-gnu"

; Function Attrs: mustprogress uwtable
define noundef nonnull align 8 dereferenceable(8) ptr @_ZN20colvarbias_restraint10write_trajERSo(ptr noundef nonnull align 8 dereferenceable(8) %0, ptr noundef nonnull align 8 dereferenceable(8) %1) unnamed_addr #4 align 2 {
  %3 = alloca ptr, align 8
  %4 = alloca ptr, align 8
  store ptr %0, ptr %3, align 8
  store ptr %1, ptr %4, align 8
  %5 = load ptr, ptr %3, align 8
  %6 = load ptr, ptr %5, align 8
  %7 = getelementptr i8, ptr %6, i64 -24
  %8 = load i64, ptr %7, align 8
  %9 = getelementptr inbounds i8, ptr %5, i64 %8
  %10 = load ptr, ptr %4, align 8
  %11 = call noundef nonnull align 8 dereferenceable(8) ptr @_ZN10colvarbias10write_trajERSo(ptr noundef nonnull align 8 dereferenceable(312) %9, ptr noundef nonnull align 8 dereferenceable(8) %10)
  ret ptr %11
}

; Function Attrs: uwtable
define noundef ptr @_ZTv0_n248_N20colvarbias_restraint10write_trajERSo(ptr noundef %0, ptr noundef nonnull align 8 dereferenceable(8) %1) unnamed_addr #3 align 2 {
  %3 = alloca ptr, align 8
  %4 = alloca ptr, align 8
  store ptr %0, ptr %3, align 8
  store ptr %1, ptr %4, align 8
  %5 = load ptr, ptr %3, align 8
  %6 = load ptr, ptr %5, align 8
  %7 = getelementptr inbounds i8, ptr %6, i64 -248
  %8 = load i64, ptr %7, align 8
  %9 = getelementptr inbounds i8, ptr %5, i64 %8
  %10 = load ptr, ptr %4, align 8
  %11 = tail call noundef nonnull align 8 dereferenceable(8) ptr @_ZN20colvarbias_restraint10write_trajERSo(ptr noundef nonnull align 8 dereferenceable(8) %9, ptr noundef nonnull align 8 dereferenceable(8) %10)
  ret ptr %11
}