; Function Attrs: uwtable
define noundef nonnull ptr @_ZTv0_n248_N20colvarbias_restraint10write_trajERSo(ptr noundef %0, ptr noundef nonnull align 8 dereferenceable(8) %1) unnamed_addr #3 align 2 {
  %3 = load ptr, ptr %0, align 8
  %4 = getelementptr inbounds i8, ptr %3, i64 -248
  %5 = load i64, ptr %4, align 8
  %6 = getelementptr inbounds i8, ptr %0, i64 %5
  %7 = load ptr, ptr %6, align 8
  %8 = getelementptr i8, ptr %7, i64 -24
  %9 = load i64, ptr %8, align 8
  %10 = getelementptr inbounds i8, ptr %6, i64 %9
  %11 = tail call noundef nonnull align 8 dereferenceable(8) ptr @_ZN10colvarbias10write_trajERSo(ptr noundef nonnull align 8 dereferenceable(312) %10, ptr noundef nonnull align 8 dereferenceable(8) %1)
  ret ptr %11
}